; Function Attrs: nounwind uwtable
define ptr @l_Lean_Elab_Structural_IndGroupInst_brecOn(ptr noundef %0, i8 noundef zeroext %1, ptr noundef %2, ptr noundef %3) local_unnamed_addr #0 {
  %5 = getelementptr inbounds nuw i8, ptr %0, i64 8
  %6 = load ptr, ptr %5, align 8, !tbaa !11
  %7 = ptrtoint ptr %6 to i64
  %8 = and i64 %7, 1
  %.not = icmp eq i64 %8, 0
  br i1 %.not, label %9, label %lean_inc.exit34

9:                                                ; preds = %4
  %.val.i = load i32, ptr %6, align 4, !tbaa !5
  %10 = icmp sgt i32 %.val.i, 0
  br i1 %10, label %11, label %13, !prof !10

11:                                               ; preds = %9
  %12 = add nuw i32 %.val.i, 1
  store i32 %12, ptr %6, align 4, !tbaa !5
  br label %lean_inc.exit34

13:                                               ; preds = %9
  %.not.i43 = icmp eq i32 %.val.i, 0
  br i1 %.not.i43, label %lean_inc.exit34, label %14

14:                                               ; preds = %13
  tail call void @lean_inc_ref_cold(ptr noundef nonnull %6) #4
  br label %lean_inc.exit34

lean_inc.exit34:                                  ; preds = %14, %13, %11, %4
  %15 = getelementptr inbounds nuw i8, ptr %0, i64 16
  %16 = load ptr, ptr %15, align 8, !tbaa !11
  %17 = ptrtoint ptr %16 to i64
  %18 = and i64 %17, 1
  %.not50 = icmp eq i64 %18, 0
  br i1 %.not50, label %19, label %lean_inc.exit33

19:                                               ; preds = %lean_inc.exit34
  %.val.i44 = load i32, ptr %16, align 4, !tbaa !5
  %20 = icmp sgt i32 %.val.i44, 0
  br i1 %20, label %21, label %23, !prof !10

21:                                               ; preds = %19
  %22 = add nuw i32 %.val.i44, 1
  store i32 %22, ptr %16, align 4, !tbaa !5
  br label %lean_inc.exit33

23:                                               ; preds = %19
  %.not.i45 = icmp eq i32 %.val.i44, 0
  br i1 %.not.i45, label %lean_inc.exit33, label %24

24:                                               ; preds = %23
  tail call void @lean_inc_ref_cold(ptr noundef nonnull %16) #4
  br label %lean_inc.exit33

lean_inc.exit33:                                  ; preds = %24, %23, %21, %lean_inc.exit34
  %25 = getelementptr inbounds nuw i8, ptr %0, i64 24
  %26 = load ptr, ptr %25, align 8, !tbaa !11
  %27 = ptrtoint ptr %26 to i64
  %28 = and i64 %27, 1
  %.not51 = icmp eq i64 %28, 0
  br i1 %.not51, label %29, label %lean_inc.exit

29:                                               ; preds = %lean_inc.exit33
  %.val.i47 = load i32, ptr %26, align 4, !tbaa !5
  %30 = icmp sgt i32 %.val.i47, 0
  br i1 %30, label %31, label %33, !prof !10

31:                                               ; preds = %29
  %32 = add nuw i32 %.val.i47, 1
  store i32 %32, ptr %26, align 4, !tbaa !5
  br label %lean_inc.exit

33:                                               ; preds = %29
  %.not.i48 = icmp eq i32 %.val.i47, 0
  br i1 %.not.i48, label %lean_inc.exit, label %34

34:                                               ; preds = %33
  tail call void @lean_inc_ref_cold(ptr noundef nonnull %26) #4
  br label %lean_inc.exit

lean_inc.exit:                                    ; preds = %34, %33, %31, %lean_inc.exit33
  %35 = ptrtoint ptr %0 to i64
  %36 = and i64 %35, 1
  %.not52 = icmp eq i64 %36, 0
  br i1 %.not52, label %37, label %lean_dec.exit32

37:                                               ; preds = %lean_inc.exit
  %38 = load i32, ptr %0, align 4, !tbaa !5
  %39 = icmp sgt i32 %38, 1
  br i1 %39, label %40, label %42, !prof !10

40:                                               ; preds = %37
  %41 = add nsw i32 %38, -1
  store i32 %41, ptr %0, align 4, !tbaa !5
  br label %lean_dec.exit32

42:                                               ; preds = %37
  %.not.i = icmp eq i32 %38, 0
  br i1 %.not.i, label %lean_dec.exit32, label %43

43:                                               ; preds = %42
  tail call void @lean_dec_ref_cold(ptr noundef nonnull %0) #4
  br label %lean_dec.exit32

lean_dec.exit32:                                  ; preds = %43, %42, %40, %lean_inc.exit
  %44 = tail call ptr @l_Lean_Elab_Structural_IndGroupInfo_brecOnName(ptr noundef %6, i8 noundef zeroext %1, ptr noundef %3)
  br i1 %.not, label %45, label %lean_dec.exit31

45:                                               ; preds = %lean_dec.exit32
  %46 = load i32, ptr %6, align 4, !tbaa !5
  %47 = icmp sgt i32 %46, 1
  br i1 %47, label %48, label %50, !prof !10

48:                                               ; preds = %45
  %49 = add nsw i32 %46, -1
  store i32 %49, ptr %6, align 4, !tbaa !5
  br label %lean_dec.exit31

50:                                               ; preds = %45
  %.not.i35 = icmp eq i32 %46, 0
  br i1 %.not.i35, label %lean_dec.exit31, label %51

51:                                               ; preds = %50
  tail call void @lean_dec_ref_cold(ptr noundef nonnull %6) #4
  br label %lean_dec.exit31

lean_dec.exit31:                                  ; preds = %51, %50, %48, %lean_dec.exit32
  %52 = icmp eq i8 %1, 0
  br i1 %52, label %53, label %69

53:                                               ; preds = %lean_dec.exit31
  tail call void @lean_inc_heartbeat() #4
  %54 = tail call noalias ptr @mi_malloc_small(i64 noundef 24) #4
  %55 = icmp eq ptr %54, null
  br i1 %55, label %56, label %lean_alloc_ctor.exit

56:                                               ; preds = %53
  tail call void @lean_internal_panic_out_of_memory() #5
  unreachable

lean_alloc_ctor.exit:                             ; preds = %53
  %57 = getelementptr inbounds nuw i8, ptr %54, i64 4
  store i32 1, ptr %54, align 4, !tbaa !5
  store i32 16908312, ptr %57, align 4
  %58 = getelementptr inbounds nuw i8, ptr %54, i64 8
  store ptr %2, ptr %58, align 8, !tbaa !11
  %59 = getelementptr inbounds nuw i8, ptr %54, i64 16
  store ptr %16, ptr %59, align 8, !tbaa !11
  %60 = tail call ptr @l_Lean_Expr_const___override(ptr noundef %44, ptr noundef nonnull %54) #4
  %61 = tail call ptr @l_Lean_mkAppN(ptr noundef %60, ptr noundef %26) #4
  br i1 %.not51, label %62, label %lean_dec.exit30

62:                                               ; preds = %lean_alloc_ctor.exit
  %63 = load i32, ptr %26, align 4, !tbaa !5
  %64 = icmp sgt i32 %63, 1
  br i1 %64, label %65, label %67, !prof !10

65:                                               ; preds = %62
  %66 = add nsw i32 %63, -1
  store i32 %66, ptr %26, align 4, !tbaa !5
  br label %lean_dec.exit30

67:                                               ; preds = %62
  %.not.i37 = icmp eq i32 %63, 0
  br i1 %.not.i37, label %lean_dec.exit30, label %68

68:                                               ; preds = %67
  tail call void @lean_dec_ref_cold(ptr noundef nonnull %26) #4
  br label %lean_dec.exit30

69:                                               ; preds = %lean_dec.exit31
  %70 = ptrtoint ptr %2 to i64
  %71 = and i64 %70, 1
  %.not53 = icmp eq i64 %71, 0
  br i1 %.not53, label %72, label %lean_dec.exit29

72:                                               ; preds = %69
  %73 = load i32, ptr %2, align 4, !tbaa !5
  %74 = icmp sgt i32 %73, 1
  br i1 %74, label %75, label %77, !prof !10

75:                                               ; preds = %72
  %76 = add nsw i32 %73, -1
  store i32 %76, ptr %2, align 4, !tbaa !5
  br label %lean_dec.exit29

77:                                               ; preds = %72
  %.not.i39 = icmp eq i32 %73, 0
  br i1 %.not.i39, label %lean_dec.exit29, label %78

78:                                               ; preds = %77
  tail call void @lean_dec_ref_cold(ptr noundef nonnull %2) #4
  br label %lean_dec.exit29

lean_dec.exit29:                                  ; preds = %78, %77, %75, %69
  %79 = tail call ptr @l_Lean_Expr_const___override(ptr noundef %44, ptr noundef %16) #4
  %80 = tail call ptr @l_Lean_mkAppN(ptr noundef %79, ptr noundef %26) #4
  br i1 %.not51, label %81, label %lean_dec.exit30

81:                                               ; preds = %lean_dec.exit29
  %82 = load i32, ptr %26, align 4, !tbaa !5
  %83 = icmp sgt i32 %82, 1
  br i1 %83, label %84, label %86, !prof !10

84:                                               ; preds = %81
  %85 = add nsw i32 %82, -1
  store i32 %85, ptr %26, align 4, !tbaa !5
  br label %lean_dec.exit30

86:                                               ; preds = %81
  %.not.i41 = icmp eq i32 %82, 0
  br i1 %.not.i41, label %lean_dec.exit30, label %87

87:                                               ; preds = %86
  tail call void @lean_dec_ref_cold(ptr noundef nonnull %26) #4
  br label %lean_dec.exit30

lean_dec.exit30:                                  ; preds = %lean_dec.exit29, %84, %86, %87, %lean_alloc_ctor.exit, %65, %67, %68
  %.0 = phi ptr [ %61, %68 ], [ %61, %67 ], [ %61, %65 ], [ %61, %lean_alloc_ctor.exit ], [ %80, %87 ], [ %80, %86 ], [ %80, %84 ], [ %80, %lean_dec.exit29 ]
  ret ptr %.0
}